target datalayout = "e-m:e-p270:32:32-p271:32:32-p272:64:64-i64:64-i128:128-f80:128-n8:16:32:64-S128"
target triple = "x86_64-pc-linux-gnu"

%struct.portalhashent = type { [64 x i8], ptr }
%struct.PortalData = type { ptr, ptr, ptr, ptr, ptr, i32, i32, i32, ptr, i32, %struct.QueryCompletion, ptr, ptr, ptr, ptr, i32, i32, i32, i8, i8, ptr, ptr, ptr, ptr, ptr, ptr, ptr, i8, i8, i64, i64, i8 }
%struct.QueryCompletion = type { i32, i64 }
%struct.HASH_SEQ_STATUS = type { ptr, i32, ptr, i8, i32 }

@TopPortalContext = internal global ptr null, align 8
@PortalHashTable = internal global ptr null, align 8
@.str.3 = private unnamed_addr constant [12 x i8] c"portalmem.c\00", align 1
@.str.10 = private unnamed_addr constant [18 x i8] c"PortalHoldContext\00", align 1
@work_mem = external global i32, align 4
@.str.20 = private unnamed_addr constant [79 x i8] c"cannot perform transaction commands inside a cursor loop that is not read-only\00", align 1
@__func__.HoldPinnedPortals = private unnamed_addr constant [18 x i8] c"HoldPinnedPortals\00", align 1
@.str.21 = private unnamed_addr constant [43 x i8] c"pinned portal is not ready to be auto-held\00", align 1
@CurrentMemoryContext = external global ptr, align 8

; Function Attrs: inlinehint nounwind uwtable
define internal ptr @MemoryContextSwitchTo(ptr noundef %0) #5 {
  %2 = alloca ptr, align 8
  %3 = alloca ptr, align 8
  store ptr %0, ptr %2, align 8
  call void @llvm.lifetime.start.p0(i64 8, ptr %3) #6
  %4 = load ptr, ptr @CurrentMemoryContext, align 8
  store ptr %4, ptr %3, align 8
  %5 = load ptr, ptr %2, align 8
  store ptr %5, ptr @CurrentMemoryContext, align 8
  %6 = load ptr, ptr %3, align 8
  call void @llvm.lifetime.end.p0(i64 8, ptr %3) #6
  ret ptr %6
}

; Function Attrs: nounwind uwtable
define internal void @PortalReleaseCachedPlan(ptr noundef %0) #0 {
  %2 = alloca ptr, align 8
  store ptr %0, ptr %2, align 8
  %3 = load ptr, ptr %2, align 8
  %4 = getelementptr inbounds nuw %struct.PortalData, ptr %3, i32 0, i32 12
  %5 = load ptr, ptr %4, align 8
  %6 = icmp ne ptr %5, null
  br i1 %6, label %7, label %15

7:                                                ; preds = %1
  %8 = load ptr, ptr %2, align 8
  %9 = getelementptr inbounds nuw %struct.PortalData, ptr %8, i32 0, i32 12
  %10 = load ptr, ptr %9, align 8
  call void @ReleaseCachedPlan(ptr noundef %10, ptr noundef null)
  %11 = load ptr, ptr %2, align 8
  %12 = getelementptr inbounds nuw %struct.PortalData, ptr %11, i32 0, i32 12
  store ptr null, ptr %12, align 8
  %13 = load ptr, ptr %2, align 8
  %14 = getelementptr inbounds nuw %struct.PortalData, ptr %13, i32 0, i32 11
  store ptr null, ptr %14, align 8
  br label %15

15:                                               ; preds = %7, %1
  ret void
}

; Function Attrs: nounwind uwtable
define dso_local void @PortalCreateHoldStore(ptr noundef %0) #0 {
  %2 = alloca ptr, align 8
  %3 = alloca ptr, align 8
  %4 = alloca i32, align 4
  store ptr %0, ptr %2, align 8
  call void @llvm.lifetime.start.p0(i64 8, ptr %3) #6
  br label %5

5:                                                ; preds = %1
  br label %6

6:                                                ; preds = %5
  br label %7

7:                                                ; preds = %6
  store i32 1, ptr %4, align 4
  %8 = load ptr, ptr @TopPortalContext, align 8
  %9 = call ptr @AllocSetContextCreateInternal(ptr noundef %8, ptr noundef @.str.10, i64 noundef 0, i64 noundef 8192, i64 noundef 8388608)
  %10 = load ptr, ptr %2, align 8
  %11 = getelementptr inbounds nuw %struct.PortalData, ptr %10, i32 0, i32 25
  store ptr %9, ptr %11, align 8
  %12 = load ptr, ptr %2, align 8
  %13 = getelementptr inbounds nuw %struct.PortalData, ptr %12, i32 0, i32 25
  %14 = load ptr, ptr %13, align 8
  %15 = call ptr @MemoryContextSwitchTo(ptr noundef %14)
  store ptr %15, ptr %3, align 8
  %16 = load ptr, ptr %2, align 8
  %17 = getelementptr inbounds nuw %struct.PortalData, ptr %16, i32 0, i32 16
  %18 = load i32, ptr %17, align 4
  %19 = and i32 %18, 2
  %20 = icmp ne i32 %19, 0
  %21 = load i32, ptr @work_mem, align 4
  %22 = call ptr @tuplestore_begin_heap(i1 noundef zeroext %20, i1 noundef zeroext true, i32 noundef %21)
  %23 = load ptr, ptr %2, align 8
  %24 = getelementptr inbounds nuw %struct.PortalData, ptr %23, i32 0, i32 24
  store ptr %22, ptr %24, align 8
  %25 = load ptr, ptr %3, align 8
  %26 = call ptr @MemoryContextSwitchTo(ptr noundef %25)
  call void @llvm.lifetime.end.p0(i64 8, ptr %3) #6
  ret void
}

; Function Attrs: nounwind uwtable
define internal void @HoldPortal(ptr noundef %0) #0 {
  %2 = alloca ptr, align 8
  store ptr %0, ptr %2, align 8
  %3 = load ptr, ptr %2, align 8
  call void @PortalCreateHoldStore(ptr noundef %3)
  %4 = load ptr, ptr %2, align 8
  call void @PersistHoldablePortal(ptr noundef %4)
  %5 = load ptr, ptr %2, align 8
  call void @PortalReleaseCachedPlan(ptr noundef %5)
  %6 = load ptr, ptr %2, align 8
  %7 = getelementptr inbounds nuw %struct.PortalData, ptr %6, i32 0, i32 3
  store ptr null, ptr %7, align 8
  %8 = load ptr, ptr %2, align 8
  %9 = getelementptr inbounds nuw %struct.PortalData, ptr %8, i32 0, i32 5
  store i32 0, ptr %9, align 8
  %10 = load ptr, ptr %2, align 8
  %11 = getelementptr inbounds nuw %struct.PortalData, ptr %10, i32 0, i32 6
  store i32 0, ptr %11, align 4
  %12 = load ptr, ptr %2, align 8
  %13 = getelementptr inbounds nuw %struct.PortalData, ptr %12, i32 0, i32 7
  store i32 0, ptr %13, align 8
  ret void
}

; Function Attrs: nounwind uwtable
define dso_local void @HoldPinnedPortals() #0 {
  %1 = alloca %struct.HASH_SEQ_STATUS, align 8
  %2 = alloca ptr, align 8
  %3 = alloca ptr, align 8
  call void @llvm.lifetime.start.p0(i64 32, ptr %1) #6
  call void @llvm.lifetime.start.p0(i64 8, ptr %2) #6
  %4 = load ptr, ptr @PortalHashTable, align 8
  call void @hash_seq_init(ptr noundef %1, ptr noundef %4)
  br label %5

5:                                                ; preds = %58, %0
  %6 = call ptr @hash_seq_search(ptr noundef %1)
  store ptr %6, ptr %2, align 8
  %7 = icmp ne ptr %6, null
  br i1 %7, label %8, label %59

8:                                                ; preds = %5
  call void @llvm.lifetime.start.p0(i64 8, ptr %3) #6
  %9 = load ptr, ptr %2, align 8
  %10 = getelementptr inbounds nuw %struct.portalhashent, ptr %9, i32 0, i32 1
  %11 = load ptr, ptr %10, align 8
  store ptr %11, ptr %3, align 8
  %12 = load ptr, ptr %3, align 8
  %13 = getelementptr inbounds nuw %struct.PortalData, ptr %12, i32 0, i32 18
  %14 = load i8, ptr %13, align 4, !range !4, !noundef !5
  %15 = trunc i8 %14 to i1
  br i1 %15, label %16, label %58

16:                                               ; preds = %8
  %17 = load ptr, ptr %3, align 8
  %18 = getelementptr inbounds nuw %struct.PortalData, ptr %17, i32 0, i32 19
  %19 = load i8, ptr %18, align 1, !range !4, !noundef !5
  %20 = trunc i8 %19 to i1
  br i1 %20, label %58, label %21

21:                                               ; preds = %16
  %22 = load ptr, ptr %3, align 8
  %23 = getelementptr inbounds nuw %struct.PortalData, ptr %22, i32 0, i32 15
  %24 = load i32, ptr %23, align 8
  %25 = icmp ne i32 %24, 0
  br i1 %25, label %26, label %38

26:                                               ; preds = %21
  br label %27

27:                                               ; preds = %26
  br i1 true, label %28, label %30

28:                                               ; preds = %27
  %29 = call zeroext i1 @errstart_cold(i32 noundef 21, ptr noundef null) #7
  br i1 %29, label %32, label %35

30:                                               ; preds = %27
  %31 = call zeroext i1 @errstart(i32 noundef 21, ptr noundef null)
  br i1 %31, label %32, label %35

32:                                               ; preds = %30, %28
  %33 = call i32 @errcode(i32 noundef 325)
  %34 = call i32 (ptr, ...) @errmsg(ptr noundef @.str.20)
  call void @errfinish(ptr noundef @.str.3, i32 noundef 1232, ptr noundef @__func__.HoldPinnedPortals)
  br label %35

35:                                               ; preds = %32, %30, %28
  unreachable

36:                                               ; No predecessors!
  br label %37

37:                                               ; preds = %36
  br label %38

38:                                               ; preds = %37, %21
  %39 = load ptr, ptr %3, align 8
  %40 = getelementptr inbounds nuw %struct.PortalData, ptr %39, i32 0, i32 17
  %41 = load i32, ptr %40, align 8
  %42 = icmp ne i32 %41, 2
  br i1 %42, label %43, label %54

43:                                               ; preds = %38
  br label %44

44:                                               ; preds = %43
  br i1 true, label %45, label %47

45:                                               ; preds = %44
  %46 = call zeroext i1 @errstart_cold(i32 noundef 21, ptr noundef null) #7
  br i1 %46, label %49, label %51

47:                                               ; preds = %44
  %48 = call zeroext i1 @errstart(i32 noundef 21, ptr noundef null)
  br i1 %48, label %49, label %51

49:                                               ; preds = %47, %45
  %50 = call i32 (ptr, ...) @errmsg_internal(ptr noundef @.str.21)
  call void @errfinish(ptr noundef @.str.3, i32 noundef 1236, ptr noundef @__func__.HoldPinnedPortals)
  br label %51

51:                                               ; preds = %49, %47, %45
  unreachable

52:                                               ; No predecessors!
  br label %53

53:                                               ; preds = %52
  br label %54

54:                                               ; preds = %53, %38
  %55 = load ptr, ptr %3, align 8
  call void @HoldPortal(ptr noundef %55)
  %56 = load ptr, ptr %3, align 8
  %57 = getelementptr inbounds nuw %struct.PortalData, ptr %56, i32 0, i32 19
  store i8 1, ptr %57, align 1
  br label %58

58:                                               ; preds = %54, %16, %8
  call void @llvm.lifetime.end.p0(i64 8, ptr %3) #6
  br label %5, !llvm.loop !18

59:                                               ; preds = %5
  call void @llvm.lifetime.end.p0(i64 8, ptr %2) #6
  call void @llvm.lifetime.end.p0(i64 32, ptr %1) #6
  ret void
}