; Function Attrs: nounwind uwtable
define dso_local void @HoldPinnedPortals() local_unnamed_addr #0 {
  %1 = alloca %struct.HASH_SEQ_STATUS, align 8
  call void @llvm.lifetime.start.p0(i64 32, ptr nonnull %1) #8
  %2 = load ptr, ptr @PortalHashTable, align 8
  call void @hash_seq_init(ptr noundef nonnull %1, ptr noundef %2) #8
  %3 = call ptr @hash_seq_search(ptr noundef nonnull %1) #8
  %.not9 = icmp eq ptr %3, null
  br i1 %.not9, label %._crit_edge, label %.lr.ph

.lr.ph:                                           ; preds = %0, %47
  %4 = phi ptr [ %48, %47 ], [ %3, %0 ]
  %5 = getelementptr inbounds nuw i8, ptr %4, i64 64
  %6 = load ptr, ptr %5, align 8
  %7 = getelementptr inbounds nuw i8, ptr %6, i64 132
  %8 = load i8, ptr %7, align 4, !range !4, !noundef !5
  %9 = trunc nuw i8 %8 to i1
  br i1 %9, label %10, label %47

10:                                               ; preds = %.lr.ph
  %11 = getelementptr inbounds nuw i8, ptr %6, i64 133
  %12 = load i8, ptr %11, align 1, !range !4, !noundef !5
  %13 = trunc nuw i8 %12 to i1
  br i1 %13, label %47, label %14

14:                                               ; preds = %10
  %15 = getelementptr inbounds nuw i8, ptr %6, i64 120
  %16 = load i32, ptr %15, align 8
  %.not7 = icmp eq i32 %16, 0
  br i1 %.not7, label %21, label %17

17:                                               ; preds = %14
  %18 = call zeroext i1 @errstart_cold(i32 noundef 21, ptr noundef null) #9
  call void @llvm.assume(i1 %18)
  %19 = call i32 @errcode(i32 noundef 325) #8
  %20 = call i32 (ptr, ...) @errmsg(ptr noundef nonnull @.str.20) #8
  call void @errfinish(ptr noundef nonnull @.str.3, i32 noundef 1232, ptr noundef nonnull @__func__.HoldPinnedPortals) #8
  unreachable

21:                                               ; preds = %14
  %22 = getelementptr inbounds nuw i8, ptr %6, i64 128
  %23 = load i32, ptr %22, align 8
  %.not8 = icmp eq i32 %23, 2
  br i1 %.not8, label %27, label %24

24:                                               ; preds = %21
  %25 = call zeroext i1 @errstart_cold(i32 noundef 21, ptr noundef null) #9
  call void @llvm.assume(i1 %25)
  %26 = call i32 (ptr, ...) @errmsg_internal(ptr noundef nonnull @.str.21) #8
  call void @errfinish(ptr noundef nonnull @.str.3, i32 noundef 1236, ptr noundef nonnull @__func__.HoldPinnedPortals) #8
  unreachable

27:                                               ; preds = %21
  %28 = load ptr, ptr @TopPortalContext, align 8
  %29 = call ptr @AllocSetContextCreateInternal(ptr noundef %28, ptr noundef nonnull @.str.10, i64 noundef 0, i64 noundef 8192, i64 noundef 8388608) #8
  %30 = getelementptr inbounds nuw i8, ptr %6, i64 176
  store ptr %29, ptr %30, align 8
  %31 = load ptr, ptr @CurrentMemoryContext, align 8
  store ptr %29, ptr @CurrentMemoryContext, align 8
  %32 = getelementptr inbounds nuw i8, ptr %6, i64 124
  %33 = load i32, ptr %32, align 4
  %34 = and i32 %33, 2
  %35 = icmp ne i32 %34, 0
  %36 = load i32, ptr @work_mem, align 4
  %37 = call ptr @tuplestore_begin_heap(i1 noundef zeroext %35, i1 noundef zeroext true, i32 noundef %36) #8
  %38 = getelementptr inbounds nuw i8, ptr %6, i64 168
  store ptr %37, ptr %38, align 8
  store ptr %31, ptr @CurrentMemoryContext, align 8
  call void @PersistHoldablePortal(ptr noundef nonnull %6) #8
  %39 = getelementptr inbounds nuw i8, ptr %6, i64 96
  %40 = load ptr, ptr %39, align 8
  %.not.i.i = icmp eq ptr %40, null
  br i1 %.not.i.i, label %HoldPortal.exit, label %41

41:                                               ; preds = %27
  call void @ReleaseCachedPlan(ptr noundef nonnull %40, ptr noundef null) #8
  %42 = getelementptr inbounds nuw i8, ptr %6, i64 88
  call void @llvm.memset.p0.i64(ptr noundef nonnull align 8 dereferenceable(16) %42, i8 0, i64 16, i1 false)
  br label %HoldPortal.exit

HoldPortal.exit:                                  ; preds = %27, %41
  %43 = getelementptr inbounds nuw i8, ptr %6, i64 24
  store ptr null, ptr %43, align 8
  %44 = getelementptr inbounds nuw i8, ptr %6, i64 40
  store i32 0, ptr %44, align 8
  %45 = getelementptr inbounds nuw i8, ptr %6, i64 44
  store i32 0, ptr %45, align 4
  %46 = getelementptr inbounds nuw i8, ptr %6, i64 48
  store i32 0, ptr %46, align 8
  store i8 1, ptr %11, align 1
  br label %47

47:                                               ; preds = %HoldPortal.exit, %10, %.lr.ph
  %48 = call ptr @hash_seq_search(ptr noundef nonnull %1) #8
  %.not = icmp eq ptr %48, null
  br i1 %.not, label %._crit_edge, label %.lr.ph, !llvm.loop !17

._crit_edge:                                      ; preds = %47, %0
  call void @llvm.lifetime.end.p0(i64 32, ptr nonnull %1) #8
  ret void
}